target datalayout = "e-m:e-p270:32:32-p271:32:32-p272:64:64-i64:64-i128:128-f80:128-n8:16:32:64-S128"
target triple = "x86_64-pc-linux-gnu"

; Function Attrs: nounwind sspstrong uwtable
define internal i32 @wait_break_f(ptr noundef %0, i32 noundef %1, ptr noundef %2) #0 {
  %4 = alloca ptr, align 8
  %5 = alloca i32, align 4
  %6 = alloca ptr, align 8
  store ptr %0, ptr %4, align 8
  store i32 %1, ptr %5, align 4
  store ptr %2, ptr %6, align 8
  br label %7

7:                                                ; preds = %15, %3
  %8 = load ptr, ptr %4, align 8
  %9 = call ptr @blk_bs(ptr noundef %8)
  %10 = load ptr, ptr %6, align 8
  %11 = getelementptr inbounds ptr, ptr %10, i64 1
  %12 = load ptr, ptr %11, align 8
  %13 = call zeroext i1 @bdrv_debug_is_suspended(ptr noundef %9, ptr noundef %12)
  %14 = xor i1 %13, true
  br i1 %14, label %15, label %19

15:                                               ; preds = %7
  %16 = load ptr, ptr %4, align 8
  %17 = call ptr @blk_get_aio_context(ptr noundef %16)
  %18 = call zeroext i1 @aio_poll(ptr noundef %17, i1 noundef zeroext true)
  br label %7, !llvm.loop !34

19:                                               ; preds = %7
  ret i32 0
}