; Function Attrs: nounwind sspstrong uwtable
define internal noundef i32 @wait_break_f(ptr noundef %0, i32 %1, ptr noundef readonly captures(none) %2) #0 {
  %4 = tail call ptr @blk_bs(ptr noundef %0) #26
  %5 = getelementptr inbounds nuw i8, ptr %2, i64 8
  %6 = load ptr, ptr %5, align 8
  %7 = tail call zeroext i1 @bdrv_debug_is_suspended(ptr noundef %4, ptr noundef %6) #26
  br i1 %7, label %._crit_edge, label %.lr.ph

.lr.ph:                                           ; preds = %3, %.lr.ph
  %8 = tail call ptr @blk_get_aio_context(ptr noundef %0) #26
  %9 = tail call zeroext i1 @aio_poll(ptr noundef %8, i1 noundef zeroext true) #26
  %10 = tail call ptr @blk_bs(ptr noundef %0) #26
  %11 = load ptr, ptr %5, align 8
  %12 = tail call zeroext i1 @bdrv_debug_is_suspended(ptr noundef %10, ptr noundef %11) #26
  br i1 %12, label %._crit_edge, label %.lr.ph, !llvm.loop !33

._crit_edge:                                      ; preds = %.lr.ph, %3
  ret i32 0
}